target datalayout = "e-m:e-p270:32:32-p271:32:32-p272:64:64-i64:64-i128:128-f80:128-n8:16:32:64-S128"
target triple = "x86_64-pc-linux-gnu"

%struct.cli_crt_t = type { ptr, [64 x i8], [64 x i8], [64 x i8], [20 x i8], [20 x i8], [20 x i8], i32, [64 x i8], ptr, ptr, ptr, i64, i64, i32, i32, i32, i32, i32, ptr, ptr }
%struct.crtmgr = type { ptr, i32 }

@.str.3 = private unnamed_addr constant [46 x i8] c"crtmgr_verify_pkcs7: unsupported sig len: %u\0A\00", align 1
@.str.4 = private unnamed_addr constant [93 x i8] c"crtmgr_verify_pkcs7: found cert with matching issuer and serial but RSA verification failed\0A\00", align 1

; Function Attrs: nounwind uwtable
define ptr @crtmgr_verify_pkcs7(ptr noundef %0, ptr noundef %1, ptr noundef %2, ptr noundef %3, i32 noundef %4, i32 noundef %5, ptr noundef %6, i32 noundef %7) #0 {
  %9 = alloca ptr, align 8
  %10 = alloca ptr, align 8
  %11 = alloca ptr, align 8
  %12 = alloca ptr, align 8
  %13 = alloca ptr, align 8
  %14 = alloca i32, align 4
  %15 = alloca i32, align 4
  %16 = alloca ptr, align 8
  %17 = alloca i32, align 4
  %18 = alloca ptr, align 8
  %19 = alloca ptr, align 8
  store ptr %0, ptr %10, align 8
  store ptr %1, ptr %11, align 8
  store ptr %2, ptr %12, align 8
  store ptr %3, ptr %13, align 8
  store i32 %4, ptr %14, align 4
  store i32 %5, ptr %15, align 4
  store ptr %6, ptr %16, align 8
  store i32 %7, ptr %17, align 4
  %20 = load i32, ptr %14, align 4
  %21 = icmp ult i32 %20, 128
  br i1 %21, label %25, label %22

22:                                               ; preds = %8
  %23 = load i32, ptr %14, align 4
  %24 = icmp ugt i32 %23, 513
  br i1 %24, label %25, label %27

25:                                               ; preds = %22, %8
  %26 = load i32, ptr %14, align 4
  call void (ptr, ...) @cli_dbgmsg(ptr noundef @.str.3, i32 noundef %26)
  store ptr null, ptr %9, align 8
  br label %92

27:                                               ; preds = %22
  %28 = call ptr @BN_new()
  store ptr %28, ptr %19, align 8
  %29 = load ptr, ptr %19, align 8
  %30 = icmp ne ptr %29, null
  br i1 %30, label %32, label %31

31:                                               ; preds = %27
  store ptr null, ptr %9, align 8
  br label %92

32:                                               ; preds = %27
  %33 = load ptr, ptr %13, align 8
  %34 = load i32, ptr %14, align 4
  %35 = load ptr, ptr %19, align 8
  %36 = call ptr @BN_bin2bn(ptr noundef %33, i32 noundef %34, ptr noundef %35)
  %37 = load ptr, ptr %10, align 8
  %38 = getelementptr inbounds %struct.crtmgr, ptr %37, i32 0, i32 0
  %39 = load ptr, ptr %38, align 8
  store ptr %39, ptr %18, align 8
  br label %40

40:                                               ; preds = %85, %32
  %41 = load ptr, ptr %18, align 8
  %42 = icmp ne ptr %41, null
  br i1 %42, label %43, label %89

43:                                               ; preds = %40
  %44 = load i32, ptr %17, align 4
  %45 = icmp eq i32 %44, 0
  br i1 %45, label %46, label %52

46:                                               ; preds = %43
  %47 = load ptr, ptr %18, align 8
  %48 = getelementptr inbounds %struct.cli_crt_t, ptr %47, i32 0, i32 16
  %49 = load i32, ptr %48, align 8
  %50 = icmp ne i32 %49, 0
  br i1 %50, label %52, label %51

51:                                               ; preds = %46
  br label %85

52:                                               ; preds = %46, %43
  %53 = load i32, ptr %17, align 4
  %54 = icmp eq i32 %53, 1
  br i1 %54, label %55, label %61

55:                                               ; preds = %52
  %56 = load ptr, ptr %18, align 8
  %57 = getelementptr inbounds %struct.cli_crt_t, ptr %56, i32 0, i32 17
  %58 = load i32, ptr %57, align 4
  %59 = icmp ne i32 %58, 0
  br i1 %59, label %61, label %60

60:                                               ; preds = %55
  br label %85

61:                                               ; preds = %55, %52
  %62 = load ptr, ptr %18, align 8
  %63 = getelementptr inbounds %struct.cli_crt_t, ptr %62, i32 0, i32 5
  %64 = getelementptr inbounds [20 x i8], ptr %63, i64 0, i64 0
  %65 = load ptr, ptr %11, align 8
  %66 = call i32 @memcmp(ptr noundef %64, ptr noundef %65, i64 noundef 20) #7
  %67 = icmp ne i32 %66, 0
  br i1 %67, label %84, label %68

68:                                               ; preds = %61
  %69 = load ptr, ptr %18, align 8
  %70 = getelementptr inbounds %struct.cli_crt_t, ptr %69, i32 0, i32 6
  %71 = getelementptr inbounds [20 x i8], ptr %70, i64 0, i64 0
  %72 = load ptr, ptr %12, align 8
  %73 = call i32 @memcmp(ptr noundef %71, ptr noundef %72, i64 noundef 20) #7
  %74 = icmp ne i32 %73, 0
  br i1 %74, label %84, label %75

75:                                               ; preds = %68
  %76 = load ptr, ptr %18, align 8
  %77 = load ptr, ptr %19, align 8
  %78 = load i32, ptr %15, align 4
  %79 = load ptr, ptr %16, align 8
  %80 = call i32 @crtmgr_rsa_verify(ptr noundef %76, ptr noundef %77, i32 noundef %78, ptr noundef %79)
  %81 = icmp ne i32 %80, 0
  br i1 %81, label %83, label %82

82:                                               ; preds = %75
  br label %89

83:                                               ; preds = %75
  call void (ptr, ...) @cli_dbgmsg(ptr noundef @.str.4)
  br label %84

84:                                               ; preds = %83, %68, %61
  br label %85

85:                                               ; preds = %84, %60, %51
  %86 = load ptr, ptr %18, align 8
  %87 = getelementptr inbounds %struct.cli_crt_t, ptr %86, i32 0, i32 20
  %88 = load ptr, ptr %87, align 8
  store ptr %88, ptr %18, align 8
  br label %40

89:                                               ; preds = %82, %40
  %90 = load ptr, ptr %19, align 8
  call void @BN_free(ptr noundef %90)
  %91 = load ptr, ptr %18, align 8
  store ptr %91, ptr %9, align 8
  br label %92

92:                                               ; preds = %89, %31, %25
  %93 = load ptr, ptr %9, align 8
  ret ptr %93
}