; Function Attrs: nounwind uwtable
define ptr @crtmgr_verify_pkcs7(ptr nocapture noundef readonly %0, ptr nocapture noundef readonly %1, ptr nocapture noundef readonly %2, ptr noundef %3, i32 noundef %4, i32 noundef %5, ptr nocapture noundef readonly %6, i32 noundef %7) local_unnamed_addr #0 {
  %9 = add i32 %4, -514
  %or.cond = icmp ult i32 %9, -386
  br i1 %or.cond, label %10, label %11

10:                                               ; preds = %8
  tail call void (ptr, ...) @cli_dbgmsg(ptr noundef nonnull @.str.3, i32 noundef %4) #10
  br label %30

11:                                               ; preds = %8
  %12 = tail call ptr @BN_new() #10
  %.not = icmp eq ptr %12, null
  br i1 %.not, label %30, label %13

13:                                               ; preds = %11
  %14 = tail call ptr @BN_bin2bn(ptr noundef %3, i32 noundef %4, ptr noundef nonnull %12) #10
  %.02535 = load ptr, ptr %0, align 8
  %.not2836 = icmp eq ptr %.02535, null
  br i1 %.not2836, label %._crit_edge, label %.lr.ph

.lr.ph:                                           ; preds = %13, %28
  %.02537 = phi ptr [ %.025, %28 ], [ %.02535, %13 ]
  switch i32 %7, label %21 [
    i32 0, label %15
    i32 1, label %18
  ]

15:                                               ; preds = %.lr.ph
  %16 = getelementptr inbounds i8, ptr %.02537, i64 376
  %17 = load i32, ptr %16, align 8
  %.not29 = icmp eq i32 %17, 0
  br i1 %.not29, label %28, label %21

18:                                               ; preds = %.lr.ph
  %19 = getelementptr inbounds i8, ptr %.02537, i64 380
  %20 = load i32, ptr %19, align 4
  %.not30 = icmp eq i32 %20, 0
  br i1 %.not30, label %28, label %21

21:                                               ; preds = %15, %.lr.ph, %18
  %22 = getelementptr inbounds i8, ptr %.02537, i64 220
  %bcmp = tail call i32 @bcmp(ptr noundef nonnull dereferenceable(20) %22, ptr noundef nonnull dereferenceable(20) %1, i64 20)
  %.not31 = icmp eq i32 %bcmp, 0
  br i1 %.not31, label %23, label %28

23:                                               ; preds = %21
  %24 = getelementptr inbounds i8, ptr %.02537, i64 240
  %bcmp32 = tail call i32 @bcmp(ptr noundef nonnull dereferenceable(20) %24, ptr noundef nonnull dereferenceable(20) %2, i64 20)
  %.not33 = icmp eq i32 %bcmp32, 0
  br i1 %.not33, label %25, label %28

25:                                               ; preds = %23
  %26 = tail call fastcc i32 @crtmgr_rsa_verify(ptr noundef nonnull %.02537, ptr noundef nonnull %12, i32 noundef %5, ptr noundef %6), !range !4
  %.not34 = icmp eq i32 %26, 0
  br i1 %.not34, label %._crit_edge, label %27

27:                                               ; preds = %25
  tail call void (ptr, ...) @cli_dbgmsg(ptr noundef nonnull @.str.4) #10
  br label %28

28:                                               ; preds = %21, %23, %27, %18, %15
  %29 = getelementptr inbounds i8, ptr %.02537, i64 400
  %.025 = load ptr, ptr %29, align 8
  %.not28 = icmp eq ptr %.025, null
  br i1 %.not28, label %._crit_edge, label %.lr.ph

._crit_edge:                                      ; preds = %28, %25, %13
  %.025.lcssa = phi ptr [ null, %13 ], [ %.02537, %25 ], [ null, %28 ]
  tail call void @BN_free(ptr noundef nonnull %12) #10
  br label %30

30:                                               ; preds = %11, %._crit_edge, %10
  %.0 = phi ptr [ null, %10 ], [ %.025.lcssa, %._crit_edge ], [ null, %11 ]
  ret ptr %.0
}